target datalayout = "e-m:e-p270:32:32-p271:32:32-p272:64:64-i64:64-i128:128-f80:128-n8:16:32:64-S128"
target triple = "x86_64-pc-linux-gnu"

%struct.env_md_ctx_st = type { ptr, ptr, ptr, ptr }

; Function Attrs: nounwind uwtable
define internal i32 @PKCS1_MGF1(ptr noundef %0, i32 noundef %1, ptr noundef %2, i32 noundef %3, ptr noundef %4) #0 {
  %6 = alloca ptr, align 8
  %7 = alloca i32, align 4
  %8 = alloca ptr, align 8
  %9 = alloca i32, align 4
  %10 = alloca ptr, align 8
  %11 = alloca i32, align 4
  %12 = alloca i32, align 4
  %13 = alloca [4 x i8], align 1
  %14 = alloca %struct.env_md_ctx_st, align 8
  %15 = alloca [64 x i8], align 16
  %16 = alloca i32, align 4
  %17 = alloca i32, align 4
  store ptr %0, ptr %6, align 8, !tbaa !6
  store i32 %1, ptr %7, align 4, !tbaa !11
  store ptr %2, ptr %8, align 8, !tbaa !6
  store i32 %3, ptr %9, align 4, !tbaa !11
  store ptr %4, ptr %10, align 8, !tbaa !19
  call void @llvm.lifetime.start.p0(i64 4, ptr %11) #9
  store i32 0, ptr %11, align 4, !tbaa !11
  call void @llvm.lifetime.start.p0(i64 4, ptr %12) #9
  call void @llvm.lifetime.start.p0(i64 4, ptr %13) #9
  call void @llvm.lifetime.start.p0(i64 32, ptr %14) #9
  call void @llvm.lifetime.start.p0(i64 64, ptr %15) #9
  call void @llvm.lifetime.start.p0(i64 4, ptr %16) #9
  call void @llvm.lifetime.start.p0(i64 4, ptr %17) #9
  store i32 -1, ptr %17, align 4, !tbaa !11
  call void @EVP_MD_CTX_init(ptr noundef %14)
  %18 = load ptr, ptr %10, align 8, !tbaa !19
  %19 = call i64 @EVP_MD_size(ptr noundef %18)
  %20 = trunc i64 %19 to i32
  store i32 %20, ptr %16, align 4, !tbaa !11
  store i32 0, ptr %12, align 4, !tbaa !11
  br label %21

21:                                               ; preds = %96, %5
  %22 = load i32, ptr %11, align 4, !tbaa !11
  %23 = load i32, ptr %7, align 4, !tbaa !11
  %24 = icmp ult i32 %22, %23
  br i1 %24, label %25, label %99

25:                                               ; preds = %21
  %26 = load i32, ptr %12, align 4, !tbaa !11
  %27 = lshr i32 %26, 24
  %28 = and i32 %27, 255
  %29 = trunc i32 %28 to i8
  %30 = getelementptr inbounds [4 x i8], ptr %13, i64 0, i64 0
  store i8 %29, ptr %30, align 1, !tbaa !13
  %31 = load i32, ptr %12, align 4, !tbaa !11
  %32 = lshr i32 %31, 16
  %33 = and i32 %32, 255
  %34 = trunc i32 %33 to i8
  %35 = getelementptr inbounds [4 x i8], ptr %13, i64 0, i64 1
  store i8 %34, ptr %35, align 1, !tbaa !13
  %36 = load i32, ptr %12, align 4, !tbaa !11
  %37 = lshr i32 %36, 8
  %38 = trunc i32 %37 to i8
  %39 = zext i8 %38 to i32
  %40 = and i32 %39, 255
  %41 = trunc i32 %40 to i8
  %42 = getelementptr inbounds [4 x i8], ptr %13, i64 0, i64 2
  store i8 %41, ptr %42, align 1, !tbaa !13
  %43 = load i32, ptr %12, align 4, !tbaa !11
  %44 = and i32 %43, 255
  %45 = trunc i32 %44 to i8
  %46 = getelementptr inbounds [4 x i8], ptr %13, i64 0, i64 3
  store i8 %45, ptr %46, align 1, !tbaa !13
  %47 = load ptr, ptr %10, align 8, !tbaa !19
  %48 = call i32 @EVP_DigestInit_ex(ptr noundef %14, ptr noundef %47, ptr noundef null)
  %49 = icmp ne i32 %48, 0
  br i1 %49, label %50, label %60

50:                                               ; preds = %25
  %51 = load ptr, ptr %8, align 8, !tbaa !6
  %52 = load i32, ptr %9, align 4, !tbaa !11
  %53 = zext i32 %52 to i64
  %54 = call i32 @EVP_DigestUpdate(ptr noundef %14, ptr noundef %51, i64 noundef %53)
  %55 = icmp ne i32 %54, 0
  br i1 %55, label %56, label %60

56:                                               ; preds = %50
  %57 = getelementptr inbounds [4 x i8], ptr %13, i64 0, i64 0
  %58 = call i32 @EVP_DigestUpdate(ptr noundef %14, ptr noundef %57, i64 noundef 4)
  %59 = icmp ne i32 %58, 0
  br i1 %59, label %61, label %60

60:                                               ; preds = %56, %50, %25
  br label %100

61:                                               ; preds = %56
  %62 = load i32, ptr %11, align 4, !tbaa !11
  %63 = load i32, ptr %16, align 4, !tbaa !11
  %64 = add i32 %62, %63
  %65 = load i32, ptr %7, align 4, !tbaa !11
  %66 = icmp ule i32 %64, %65
  br i1 %66, label %67, label %79

67:                                               ; preds = %61
  %68 = load ptr, ptr %6, align 8, !tbaa !6
  %69 = load i32, ptr %11, align 4, !tbaa !11
  %70 = zext i32 %69 to i64
  %71 = getelementptr inbounds nuw i8, ptr %68, i64 %70
  %72 = call i32 @EVP_DigestFinal_ex(ptr noundef %14, ptr noundef %71, ptr noundef null)
  %73 = icmp ne i32 %72, 0
  br i1 %73, label %75, label %74

74:                                               ; preds = %67
  br label %100

75:                                               ; preds = %67
  %76 = load i32, ptr %16, align 4, !tbaa !11
  %77 = load i32, ptr %11, align 4, !tbaa !11
  %78 = add i32 %77, %76
  store i32 %78, ptr %11, align 4, !tbaa !11
  br label %95

79:                                               ; preds = %61
  %80 = getelementptr inbounds [64 x i8], ptr %15, i64 0, i64 0
  %81 = call i32 @EVP_DigestFinal_ex(ptr noundef %14, ptr noundef %80, ptr noundef null)
  %82 = icmp ne i32 %81, 0
  br i1 %82, label %84, label %83

83:                                               ; preds = %79
  br label %100

84:                                               ; preds = %79
  %85 = load ptr, ptr %6, align 8, !tbaa !6
  %86 = load i32, ptr %11, align 4, !tbaa !11
  %87 = zext i32 %86 to i64
  %88 = getelementptr inbounds nuw i8, ptr %85, i64 %87
  %89 = getelementptr inbounds [64 x i8], ptr %15, i64 0, i64 0
  %90 = load i32, ptr %7, align 4, !tbaa !11
  %91 = load i32, ptr %11, align 4, !tbaa !11
  %92 = sub i32 %90, %91
  %93 = zext i32 %92 to i64
  call void @llvm.memcpy.p0.p0.i64(ptr align 1 %88, ptr align 16 %89, i64 %93, i1 false)
  %94 = load i32, ptr %7, align 4, !tbaa !11
  store i32 %94, ptr %11, align 4, !tbaa !11
  br label %95

95:                                               ; preds = %84, %75
  br label %96

96:                                               ; preds = %95
  %97 = load i32, ptr %12, align 4, !tbaa !11
  %98 = add i32 %97, 1
  store i32 %98, ptr %12, align 4, !tbaa !11
  br label %21, !llvm.loop !23

99:                                               ; preds = %21
  store i32 0, ptr %17, align 4, !tbaa !11
  br label %100

100:                                              ; preds = %99, %83, %74, %60
  %101 = call i32 @EVP_MD_CTX_cleanup(ptr noundef %14)
  %102 = load i32, ptr %17, align 4, !tbaa !11
  call void @llvm.lifetime.end.p0(i64 4, ptr %17) #9
  call void @llvm.lifetime.end.p0(i64 4, ptr %16) #9
  call void @llvm.lifetime.end.p0(i64 64, ptr %15) #9
  call void @llvm.lifetime.end.p0(i64 32, ptr %14) #9
  call void @llvm.lifetime.end.p0(i64 4, ptr %13) #9
  call void @llvm.lifetime.end.p0(i64 4, ptr %12) #9
  call void @llvm.lifetime.end.p0(i64 4, ptr %11) #9
  ret i32 %102
}