; Function Attrs: nounwind uwtable
define internal fastcc range(i32 -1, 1) i32 @PKCS1_MGF1(ptr noundef %0, i32 noundef %1, ptr noundef %2, i32 noundef %3, ptr noundef %4) unnamed_addr #0 {
  %6 = alloca [4 x i8], align 1
  %7 = alloca %struct.env_md_ctx_st, align 8
  %8 = alloca [64 x i8], align 16
  call void @llvm.lifetime.start.p0(i64 4, ptr nonnull %6) #8
  call void @llvm.lifetime.start.p0(i64 32, ptr nonnull %7) #8
  call void @llvm.lifetime.start.p0(i64 64, ptr nonnull %8) #8
  call void @EVP_MD_CTX_init(ptr noundef nonnull %7) #8
  %9 = call i64 @EVP_MD_size(ptr noundef %4) #8
  %10 = trunc i64 %9 to i32
  %11 = zext i32 %3 to i64
  %.not44 = icmp eq i32 %1, 0
  br i1 %.not44, label %._crit_edge, label %.lr.ph

.lr.ph:                                           ; preds = %5
  %12 = getelementptr inbounds nuw i8, ptr %6, i64 1
  %13 = getelementptr inbounds nuw i8, ptr %6, i64 2
  %14 = getelementptr inbounds nuw i8, ptr %6, i64 3
  br label %15

15:                                               ; preds = %.lr.ph, %40
  %.02333 = phi i32 [ 0, %.lr.ph ], [ %29, %40 ]
  %.02432 = phi i32 [ 0, %.lr.ph ], [ %41, %40 ]
  %16 = lshr i32 %.02432, 24
  %17 = trunc nuw i32 %16 to i8
  store i8 %17, ptr %6, align 1, !tbaa !6
  %18 = lshr i32 %.02432, 16
  %19 = trunc i32 %18 to i8
  store i8 %19, ptr %12, align 1, !tbaa !6
  %20 = lshr i32 %.02432, 8
  %21 = trunc i32 %20 to i8
  store i8 %21, ptr %13, align 1, !tbaa !6
  %22 = trunc i32 %.02432 to i8
  store i8 %22, ptr %14, align 1, !tbaa !6
  %23 = call i32 @EVP_DigestInit_ex(ptr noundef nonnull %7, ptr noundef %4, ptr noundef null) #8
  %.not = icmp eq i32 %23, 0
  br i1 %.not, label %._crit_edge, label %24

24:                                               ; preds = %15
  %25 = call i32 @EVP_DigestUpdate(ptr noundef nonnull %7, ptr noundef %2, i64 noundef %11) #8
  %.not27 = icmp eq i32 %25, 0
  br i1 %.not27, label %._crit_edge, label %26

26:                                               ; preds = %24
  %27 = call i32 @EVP_DigestUpdate(ptr noundef nonnull %7, ptr noundef nonnull %6, i64 noundef 4) #8
  %.not28 = icmp eq i32 %27, 0
  br i1 %.not28, label %._crit_edge, label %28

28:                                               ; preds = %26
  %29 = add i32 %.02333, %10
  %.not29 = icmp ugt i32 %29, %1
  br i1 %.not29, label %34, label %30

30:                                               ; preds = %28
  %31 = zext i32 %.02333 to i64
  %32 = getelementptr inbounds nuw i8, ptr %0, i64 %31
  %33 = call i32 @EVP_DigestFinal_ex(ptr noundef nonnull %7, ptr noundef %32, ptr noundef null) #8
  %.not31 = icmp eq i32 %33, 0
  br i1 %.not31, label %._crit_edge, label %40

34:                                               ; preds = %28
  %35 = call i32 @EVP_DigestFinal_ex(ptr noundef nonnull %7, ptr noundef nonnull %8, ptr noundef null) #8
  %.not30 = icmp eq i32 %35, 0
  br i1 %.not30, label %._crit_edge, label %.thread

.thread:                                          ; preds = %34
  %36 = zext i32 %.02333 to i64
  %37 = getelementptr inbounds nuw i8, ptr %0, i64 %36
  %38 = sub i32 %1, %.02333
  %39 = zext i32 %38 to i64
  call void @llvm.memcpy.p0.p0.i64(ptr align 1 %37, ptr nonnull align 16 %8, i64 %39, i1 false)
  br label %._crit_edge

40:                                               ; preds = %30
  %41 = add i32 %.02432, 1
  %42 = icmp ult i32 %29, %1
  br i1 %42, label %15, label %._crit_edge, !llvm.loop !16

._crit_edge:                                      ; preds = %26, %24, %15, %30, %40, %34, %.thread, %5
  %.0 = phi i32 [ 0, %5 ], [ -1, %34 ], [ 0, %.thread ], [ 0, %40 ], [ -1, %30 ], [ -1, %15 ], [ -1, %24 ], [ -1, %26 ]
  %43 = call i32 @EVP_MD_CTX_cleanup(ptr noundef nonnull %7) #8
  call void @llvm.lifetime.end.p0(i64 64, ptr nonnull %8) #8
  call void @llvm.lifetime.end.p0(i64 32, ptr nonnull %7) #8
  call void @llvm.lifetime.end.p0(i64 4, ptr nonnull %6) #8
  ret i32 %.0
}